Certificate:
    Data:
        Version: 1 (0x0)
        Serial Number: 43982 (0xabce)
    Signature Algorithm: sha1WithRSAEncryption
        Issuer: C=US, ST=US, L=WC, O=Default Company Ltd
        Validity
            Not Before: Aug 11 03:58:22 2020 GMT
            Not After : Aug  9 03:58:22 2030 GMT
        Subject: C=US, O=Default Company Ltd, L=Default City
        Subject Public Key Info:
            Public Key Algorithm: rsaEncryption
                Public-Key: (2048 bit)
                Modulus:
                    00:bc:53:10:0c:c6:a5:62:84:98:8d:e6:6b:24:71:
                    9a:12:ab:3e:77:4c:44:6b:e5:ee:d4:03:d3:0e:21:
                    a9:32:60:9c:27:50:5f:d9:da:48:1e:4f:28:ab:fa:
                    3c:0c:58:3c:6a:e2:ea:cc:fc:cf:34:d4:56:6b:b7:
                    29:05:3a:6b:44:fd:64:31:42:13:25:a5:4e:eb:b4:
                    63:45:de:5f:3e:5c:91:cf:08:6e:43:94:1a:14:19:
                    e6:cb:1f:f1:d4:3c:98:92:14:3a:ab:40:3e:a4:67:
                    99:11:26:f0:4f:c1:81:e3:bb:73:35:a4:eb:18:aa:
                    73:22:c6:e1:a5:c9:05:9c:27:b9:10:44:8c:db:c7:
                    1e:f3:ab:96:37:4f:9d:60:a6:9c:f4:10:e0:4c:4c:
                    49:34:aa:f4:c7:0b:56:48:50:35:11:0c:44:06:71:
                    1c:d2:c4:9e:2f:0b:d1:0c:7f:ab:67:38:d4:7d:c0:
                    6e:49:87:95:db:77:95:40:5e:81:08:b0:54:f8:69:
                    3d:89:fa:61:bc:83:75:2b:ec:44:08:c8:5d:2a:f5:
                    f8:67:41:38:91:30:f1:87:27:19:2e:bf:c0:d0:41:
                    da:b1:05:cf:8b:0b:06:a5:a4:42:50:90:1c:f9:42:
                    df:ba:a0:0b:d6:c0:57:bf:c6:44:05:9c:e5:a7:29:
                    33:1f
                Exponent: 65537 (0x10001)
    Signature Algorithm: sha1WithRSAEncryption
         3f:8e:d0:17:f5:f7:98:eb:14:d1:07:ee:ea:ba:5d:6d:e3:5f:
         6a:0d:9b:df:f1:6d:7e:36:2a:b4:10:00:42:56:ca:41:fa:58:
         e4:13:f5:4c:4e:58:b4:be:b2:e4:2a:7d:ca:e3:74:2e:f1:fd:
         48:98:b7:ad:6d:dc:80:cf:62:af:d5:e9:06:a6:e1:72:20:17:
         d5:c5:62:54:19:f9:6a:8f:a2:26:34:d8:59:c8:88:37:57:17:
         e2:73:6d:eb:83:7e:98:9e:9d:df:ee:46:64:27:ec:91:8d:3c:
         1e:bd:96:39:d2:ed:65:66:c2:8d:0e:2d:1c:af:43:ab:b4:0c:
         fc:44:d4:7e:98:77:65:a6:74:51:2e:73:0c:5d:36:22:c5:6b:
         53:55:3c:c9:ef:ee:f8:3e:fa:02:71:ef:51:a3:73:fb:e3:3d:
         f7:f7:e5:87:98:c5:0f:47:a8:90:a8:4a:75:56:3a:57:bc:a5:
         3d:30:d9:8c:34:57:65:33:98:eb:9c:e9:8a:95:34:99:9e:58:
         43:f4:2e:b5:c8:2b:a7:31:9c:fa:b4:32:d1:32:0f:59:0e:b8:
         6e:f0:b5:ab:58:d2:95:67:9f:7b:5f:b2:16:23:ff:19:50:19:
         c9:2d:96:64:71:75:db:2f:29:d4:27:b3:b4:27:ce:8d:08:bc:
         6b:3f:40:92
-----BEGIN CERTIFICATE-----
MIIC/TCCAeUCAwCrzjANBgkqhkiG9w0BAQUFADBFMQswCQYDVQQGEwJVUzELMAkG
A1UECAwCVVMxCzAJBgNVBAcMAldDMRwwGgYDVQQKDBNEZWZhdWx0IENvbXBhbnkg
THRkMB4XDTIwMDgxMTAzNTgyMloXDTMwMDgwOTAzNTgyMlowQjELMAkGA1UEBhMC
VVMxHDAaBgNVBAoME0RlZmF1bHQgQ29tcGFueSBMdGQxFTATBgNVBAcMDERlZmF1
bHQgQ2l0eTCCASIwDQYJKoZIhvcNAQEBBQADggEPADCCAQoCggEBALxTEAzGpWKE
mI3mayRxmhKrPndMRGvl7tQD0w4hqTJgnCdQX9naSB5PKKv6PAxYPGri6sz8zzTU
Vmu3KQU6a0T9ZDFCEyWlTuu0Y0XeXz5ckc8IbkOUGhQZ5ssf8dQ8mJIUOqtAPqRn
mREm8E/BgeO7czWk6xiqcyLG4aXJBZwnuRBEjNvHHvOrljdPnWCmnPQQ4ExMSTSq
9McLVkhQNREMRAZxHNLEni8L0Qx/q2c41H3AbkmHldt3lUBegQiwVPhpPYn6YbyD
dSvsRAjIXSr1+GdBOJEw8YcnGS6/wNBB2rEFz4sLBqWkQlCQHPlC37qgC9bAV7/G
RAWc5acpMx8CAwEAATANBgkqhkiG9w0BAQUFAAOCAQEAP47QF/X3mOsU0Qfu6rpd
beNfag2b3/FtfjYqtBAAQlbKQfpY5BP1TE5YtL6y5Cp9yuN0LvH9SJi3rW3cgM9i
r9XpBqbhciAX1cViVBn5ao+iJjTYWciIN1cX4nNt64N+mJ6d3+5GZCfskY08Hr2W
OdLtZWbCjQ4tHK9Dq7QM/ETUfph3ZaZ0US5zDF02IsVrU1U8ye/u+D76AnHvUaNz
++M99/flh5jFD0eokKhKdVY6V7ylPTDZjDRXZTOY65zpipU0mZ5YQ/QutcgrpzGc
+rQy0TIPWQ64bvC1q1jSlWefe1+yFiP/GVAZyS2WZHF12y8p1CeztCfOjQi8az9A
kg==
-----END CERTIFICATE-----
